target datalayout = "e-m:e-p270:32:32-p271:32:32-p272:64:64-i64:64-i128:128-f80:128-n8:16:32:64-S128"
target triple = "x86_64-pc-linux-gnu"

%struct._zval_struct = type { %union._zend_value, %union.anon, %union.anon.2 }
%union._zend_value = type { i64 }
%union.anon = type { i32 }
%union.anon.2 = type { i32 }
%struct._zend_execute_data = type { ptr, ptr, ptr, ptr, %struct._zval_struct, ptr, ptr, ptr, ptr }

; Function Attrs: nounwind uwtable
define hidden void @zif_fmod(ptr noundef %0, ptr noundef %1) #0 {
  %3 = alloca ptr, align 8
  %4 = alloca ptr, align 8
  %5 = alloca i1, align 1
  %6 = alloca ptr, align 8
  %7 = alloca ptr, align 8
  %8 = alloca ptr, align 8
  %9 = alloca i8, align 1
  %10 = alloca i32, align 4
  %11 = alloca ptr, align 8
  %12 = alloca ptr, align 8
  %13 = alloca i1, align 1
  %14 = alloca ptr, align 8
  %15 = alloca ptr, align 8
  %16 = alloca ptr, align 8
  %17 = alloca i8, align 1
  %18 = alloca i32, align 4
  %19 = alloca ptr, align 8
  %20 = alloca ptr, align 8
  %21 = alloca double, align 8
  %22 = alloca double, align 8
  %23 = alloca i32, align 4
  %24 = alloca i32, align 4
  %25 = alloca i32, align 4
  %26 = alloca i32, align 4
  %27 = alloca i32, align 4
  %28 = alloca ptr, align 8
  %29 = alloca ptr, align 8
  %30 = alloca i32, align 4
  %31 = alloca ptr, align 8
  %32 = alloca i8, align 1
  %33 = alloca i8, align 1
  %34 = alloca i32, align 4
  %35 = alloca ptr, align 8
  store ptr %0, ptr %19, align 8
  store ptr %1, ptr %20, align 8
  br label %36

36:                                               ; preds = %2
  store i32 0, ptr %23, align 4
  store i32 2, ptr %24, align 4
  store i32 2, ptr %25, align 4
  %37 = load ptr, ptr %19, align 8
  %38 = getelementptr inbounds %struct._zend_execute_data, ptr %37, i32 0, i32 4
  %39 = getelementptr inbounds %struct._zval_struct, ptr %38, i32 0, i32 2
  %40 = load i32, ptr %39, align 4
  store i32 %40, ptr %26, align 4
  store i32 0, ptr %27, align 4
  store ptr null, ptr %29, align 8
  store i32 0, ptr %30, align 4
  store ptr null, ptr %31, align 8
  store i8 0, ptr %32, align 1
  store i8 0, ptr %33, align 1
  store i32 0, ptr %34, align 4
  br label %41

41:                                               ; preds = %36
  %42 = load i32, ptr %26, align 4
  %43 = load i32, ptr %24, align 4
  %44 = icmp ult i32 %42, %43
  %45 = xor i1 %44, true
  %46 = xor i1 %45, true
  %47 = zext i1 %46 to i32
  %48 = sext i32 %47 to i64
  %49 = icmp ne i64 %48, 0
  br i1 %49, label %59, label %50

50:                                               ; preds = %41
  %51 = load i32, ptr %26, align 4
  %52 = load i32, ptr %25, align 4
  %53 = icmp ugt i32 %51, %52
  %54 = xor i1 %53, true
  %55 = xor i1 %54, true
  %56 = zext i1 %55 to i32
  %57 = sext i32 %56 to i64
  %58 = icmp ne i64 %57, 0
  br i1 %58, label %59, label %62

59:                                               ; preds = %50, %41
  %60 = load i32, ptr %24, align 4
  %61 = load i32, ptr %25, align 4
  call void @zend_wrong_parameters_count_error(i32 noundef %60, i32 noundef %61)
  store i32 1, ptr %34, align 4
  br label %243

62:                                               ; preds = %50
  %63 = load ptr, ptr %19, align 8
  %64 = getelementptr inbounds %struct._zval_struct, ptr %63, i64 4
  store ptr %64, ptr %28, align 8
  %65 = load i32, ptr %27, align 4
  %66 = add i32 %65, 1
  store i32 %66, ptr %27, align 4
  %67 = load i32, ptr %27, align 4
  %68 = load i32, ptr %24, align 4
  %69 = icmp ule i32 %67, %68
  br i1 %69, label %75, label %70

70:                                               ; preds = %62
  %71 = load i8, ptr %33, align 1
  %72 = trunc i8 %71 to i1
  %73 = zext i1 %72 to i32
  %74 = icmp eq i32 %73, 1
  br label %75

75:                                               ; preds = %70, %62
  %76 = phi i1 [ true, %62 ], [ %74, %70 ]
  call void @llvm.assume(i1 %76)
  %77 = load i32, ptr %27, align 4
  %78 = load i32, ptr %24, align 4
  %79 = icmp ugt i32 %77, %78
  br i1 %79, label %85, label %80

80:                                               ; preds = %75
  %81 = load i8, ptr %33, align 1
  %82 = trunc i8 %81 to i1
  %83 = zext i1 %82 to i32
  %84 = icmp eq i32 %83, 0
  br label %85

85:                                               ; preds = %80, %75
  %86 = phi i1 [ true, %75 ], [ %84, %80 ]
  call void @llvm.assume(i1 %86)
  %87 = load i8, ptr %33, align 1
  %88 = trunc i8 %87 to i1
  br i1 %88, label %89, label %100

89:                                               ; preds = %85
  %90 = load i32, ptr %27, align 4
  %91 = load i32, ptr %26, align 4
  %92 = icmp ugt i32 %90, %91
  %93 = xor i1 %92, true
  %94 = xor i1 %93, true
  %95 = zext i1 %94 to i32
  %96 = sext i32 %95 to i64
  %97 = icmp ne i64 %96, 0
  br i1 %97, label %98, label %99

98:                                               ; preds = %89
  br label %243

99:                                               ; preds = %89
  br label %100

100:                                              ; preds = %99, %85
  %101 = load ptr, ptr %28, align 8
  %102 = getelementptr inbounds %struct._zval_struct, ptr %101, i32 1
  store ptr %102, ptr %28, align 8
  %103 = load ptr, ptr %28, align 8
  store ptr %103, ptr %29, align 8
  %104 = load ptr, ptr %29, align 8
  %105 = load i32, ptr %27, align 4
  store ptr %104, ptr %6, align 8
  store ptr %21, ptr %7, align 8
  store ptr %32, ptr %8, align 8
  store i8 0, ptr %9, align 1
  store i32 %105, ptr %10, align 4
  %106 = load i8, ptr %9, align 1
  %107 = trunc i8 %106 to i1
  br i1 %107, label %108, label %110

108:                                              ; preds = %100
  %109 = load ptr, ptr %8, align 8
  store i8 0, ptr %109, align 1
  br label %110

110:                                              ; preds = %108, %100
  %111 = load ptr, ptr %6, align 8
  store ptr %111, ptr %3, align 8
  %112 = load ptr, ptr %3, align 8
  %113 = getelementptr inbounds %struct._zval_struct, ptr %112, i32 0, i32 1
  %114 = load i8, ptr %113, align 8
  %115 = zext i8 %114 to i32
  %116 = icmp eq i32 %115, 5
  br i1 %116, label %117, label %121

117:                                              ; preds = %110
  %118 = load ptr, ptr %6, align 8
  %119 = load double, ptr %118, align 8
  %120 = load ptr, ptr %7, align 8
  store double %119, ptr %120, align 8
  br label %139

121:                                              ; preds = %110
  %122 = load i8, ptr %9, align 1
  %123 = trunc i8 %122 to i1
  br i1 %123, label %124, label %134

124:                                              ; preds = %121
  %125 = load ptr, ptr %6, align 8
  store ptr %125, ptr %4, align 8
  %126 = load ptr, ptr %4, align 8
  %127 = getelementptr inbounds %struct._zval_struct, ptr %126, i32 0, i32 1
  %128 = load i8, ptr %127, align 8
  %129 = zext i8 %128 to i32
  %130 = icmp eq i32 %129, 1
  br i1 %130, label %131, label %134

131:                                              ; preds = %124
  %132 = load ptr, ptr %8, align 8
  store i8 1, ptr %132, align 1
  %133 = load ptr, ptr %7, align 8
  store double 0.000000e+00, ptr %133, align 8
  br label %139

134:                                              ; preds = %124, %121
  %135 = load ptr, ptr %6, align 8
  %136 = load ptr, ptr %7, align 8
  %137 = load i32, ptr %10, align 4
  %138 = call zeroext i1 @zend_parse_arg_double_slow(ptr noundef %135, ptr noundef %136, i32 noundef %137) #12
  store i1 %138, ptr %5, align 1
  br label %140

139:                                              ; preds = %131, %117
  store i1 true, ptr %5, align 1
  br label %140

140:                                              ; preds = %139, %134
  %141 = load i1, ptr %5, align 1
  %142 = xor i1 %141, true
  %143 = xor i1 %142, true
  %144 = xor i1 %143, true
  %145 = zext i1 %144 to i32
  %146 = sext i32 %145 to i64
  %147 = icmp ne i64 %146, 0
  br i1 %147, label %148, label %149

148:                                              ; preds = %140
  store i32 20, ptr %30, align 4
  store i32 9, ptr %34, align 4
  br label %243

149:                                              ; preds = %140
  %150 = load i32, ptr %27, align 4
  %151 = add i32 %150, 1
  store i32 %151, ptr %27, align 4
  %152 = load i32, ptr %27, align 4
  %153 = load i32, ptr %24, align 4
  %154 = icmp ule i32 %152, %153
  br i1 %154, label %160, label %155

155:                                              ; preds = %149
  %156 = load i8, ptr %33, align 1
  %157 = trunc i8 %156 to i1
  %158 = zext i1 %157 to i32
  %159 = icmp eq i32 %158, 1
  br label %160

160:                                              ; preds = %155, %149
  %161 = phi i1 [ true, %149 ], [ %159, %155 ]
  call void @llvm.assume(i1 %161)
  %162 = load i32, ptr %27, align 4
  %163 = load i32, ptr %24, align 4
  %164 = icmp ugt i32 %162, %163
  br i1 %164, label %170, label %165

165:                                              ; preds = %160
  %166 = load i8, ptr %33, align 1
  %167 = trunc i8 %166 to i1
  %168 = zext i1 %167 to i32
  %169 = icmp eq i32 %168, 0
  br label %170

170:                                              ; preds = %165, %160
  %171 = phi i1 [ true, %160 ], [ %169, %165 ]
  call void @llvm.assume(i1 %171)
  %172 = load i8, ptr %33, align 1
  %173 = trunc i8 %172 to i1
  br i1 %173, label %174, label %185

174:                                              ; preds = %170
  %175 = load i32, ptr %27, align 4
  %176 = load i32, ptr %26, align 4
  %177 = icmp ugt i32 %175, %176
  %178 = xor i1 %177, true
  %179 = xor i1 %178, true
  %180 = zext i1 %179 to i32
  %181 = sext i32 %180 to i64
  %182 = icmp ne i64 %181, 0
  br i1 %182, label %183, label %184

183:                                              ; preds = %174
  br label %243

184:                                              ; preds = %174
  br label %185

185:                                              ; preds = %184, %170
  %186 = load ptr, ptr %28, align 8
  %187 = getelementptr inbounds %struct._zval_struct, ptr %186, i32 1
  store ptr %187, ptr %28, align 8
  %188 = load ptr, ptr %28, align 8
  store ptr %188, ptr %29, align 8
  %189 = load ptr, ptr %29, align 8
  %190 = load i32, ptr %27, align 4
  store ptr %189, ptr %14, align 8
  store ptr %22, ptr %15, align 8
  store ptr %32, ptr %16, align 8
  store i8 0, ptr %17, align 1
  store i32 %190, ptr %18, align 4
  %191 = load i8, ptr %17, align 1
  %192 = trunc i8 %191 to i1
  br i1 %192, label %193, label %195

193:                                              ; preds = %185
  %194 = load ptr, ptr %16, align 8
  store i8 0, ptr %194, align 1
  br label %195

195:                                              ; preds = %193, %185
  %196 = load ptr, ptr %14, align 8
  store ptr %196, ptr %11, align 8
  %197 = load ptr, ptr %11, align 8
  %198 = getelementptr inbounds %struct._zval_struct, ptr %197, i32 0, i32 1
  %199 = load i8, ptr %198, align 8
  %200 = zext i8 %199 to i32
  %201 = icmp eq i32 %200, 5
  br i1 %201, label %202, label %206

202:                                              ; preds = %195
  %203 = load ptr, ptr %14, align 8
  %204 = load double, ptr %203, align 8
  %205 = load ptr, ptr %15, align 8
  store double %204, ptr %205, align 8
  br label %224

206:                                              ; preds = %195
  %207 = load i8, ptr %17, align 1
  %208 = trunc i8 %207 to i1
  br i1 %208, label %209, label %219

209:                                              ; preds = %206
  %210 = load ptr, ptr %14, align 8
  store ptr %210, ptr %12, align 8
  %211 = load ptr, ptr %12, align 8
  %212 = getelementptr inbounds %struct._zval_struct, ptr %211, i32 0, i32 1
  %213 = load i8, ptr %212, align 8
  %214 = zext i8 %213 to i32
  %215 = icmp eq i32 %214, 1
  br i1 %215, label %216, label %219

216:                                              ; preds = %209
  %217 = load ptr, ptr %16, align 8
  store i8 1, ptr %217, align 1
  %218 = load ptr, ptr %15, align 8
  store double 0.000000e+00, ptr %218, align 8
  br label %224

219:                                              ; preds = %209, %206
  %220 = load ptr, ptr %14, align 8
  %221 = load ptr, ptr %15, align 8
  %222 = load i32, ptr %18, align 4
  %223 = call zeroext i1 @zend_parse_arg_double_slow(ptr noundef %220, ptr noundef %221, i32 noundef %222) #12
  store i1 %223, ptr %13, align 1
  br label %225

224:                                              ; preds = %216, %202
  store i1 true, ptr %13, align 1
  br label %225

225:                                              ; preds = %224, %219
  %226 = load i1, ptr %13, align 1
  %227 = xor i1 %226, true
  %228 = xor i1 %227, true
  %229 = xor i1 %228, true
  %230 = zext i1 %229 to i32
  %231 = sext i32 %230 to i64
  %232 = icmp ne i64 %231, 0
  br i1 %232, label %233, label %234

233:                                              ; preds = %225
  store i32 20, ptr %30, align 4
  store i32 9, ptr %34, align 4
  br label %243

234:                                              ; preds = %225
  %235 = load i32, ptr %27, align 4
  %236 = load i32, ptr %25, align 4
  %237 = icmp eq i32 %235, %236
  br i1 %237, label %241, label %238

238:                                              ; preds = %234
  %239 = load i32, ptr %25, align 4
  %240 = icmp eq i32 %239, -1
  br label %241

241:                                              ; preds = %238, %234
  %242 = phi i1 [ true, %234 ], [ %240, %238 ]
  call void @llvm.assume(i1 %242)
  br label %243

243:                                              ; preds = %241, %233, %183, %148, %98, %59
  %244 = load i32, ptr %34, align 4
  %245 = icmp ne i32 %244, 0
  %246 = xor i1 %245, true
  %247 = xor i1 %246, true
  %248 = zext i1 %247 to i32
  %249 = sext i32 %248 to i64
  %250 = icmp ne i64 %249, 0
  br i1 %250, label %251, label %257

251:                                              ; preds = %243
  %252 = load i32, ptr %34, align 4
  %253 = load i32, ptr %27, align 4
  %254 = load ptr, ptr %31, align 8
  %255 = load i32, ptr %30, align 4
  %256 = load ptr, ptr %29, align 8
  call void @zend_wrong_parameter_error(i32 noundef %252, i32 noundef %253, ptr noundef %254, i32 noundef %255, ptr noundef %256)
  br label %270

257:                                              ; preds = %243
  br label %258

258:                                              ; preds = %257
  br label %259

259:                                              ; preds = %258
  br label %260

260:                                              ; preds = %259
  %261 = load ptr, ptr %20, align 8
  store ptr %261, ptr %35, align 8
  %262 = load double, ptr %21, align 8
  %263 = load double, ptr %22, align 8
  %264 = call double @fmod(double noundef %262, double noundef %263) #12
  %265 = load ptr, ptr %35, align 8
  %266 = getelementptr inbounds %struct._zval_struct, ptr %265, i32 0, i32 0
  store double %264, ptr %266, align 8
  %267 = load ptr, ptr %35, align 8
  %268 = getelementptr inbounds %struct._zval_struct, ptr %267, i32 0, i32 1
  store i32 5, ptr %268, align 8
  br label %269

269:                                              ; preds = %260
  br label %270

270:                                              ; preds = %269, %251
  ret void
}