; Function Attrs: nounwind uwtable
define hidden void @zif_fmod(ptr noundef %0, ptr nocapture noundef writeonly %1) local_unnamed_addr #0 {
  %3 = alloca double, align 8
  %4 = alloca double, align 8
  %5 = getelementptr inbounds i8, ptr %0, i64 44
  %6 = load i32, ptr %5, align 4
  %.not = icmp eq i32 %6, 2
  br i1 %.not, label %8, label %7

7:                                                ; preds = %2
  tail call void @zend_wrong_parameters_count_error(i32 noundef 2, i32 noundef 2) #15
  br label %.thread103

8:                                                ; preds = %2
  %9 = getelementptr inbounds i8, ptr %0, i64 80
  %10 = getelementptr inbounds i8, ptr %0, i64 88
  %11 = load i8, ptr %10, align 8
  %12 = icmp eq i8 %11, 5
  br i1 %12, label %.critedge, label %14

.critedge:                                        ; preds = %8
  %13 = load double, ptr %9, align 8
  store double %13, ptr %3, align 8
  br label %16

14:                                               ; preds = %8
  %15 = call zeroext i1 @zend_parse_arg_double_slow(ptr noundef nonnull %9, ptr noundef nonnull %3, i32 noundef 1) #15
  br i1 %15, label %16, label %.thread103

16:                                               ; preds = %14, %.critedge
  %17 = getelementptr inbounds i8, ptr %0, i64 96
  %18 = getelementptr inbounds i8, ptr %0, i64 104
  %19 = load i8, ptr %18, align 8
  %20 = icmp eq i8 %19, 5
  br i1 %20, label %.thread115, label %21

21:                                               ; preds = %16
  %22 = call zeroext i1 @zend_parse_arg_double_slow(ptr noundef nonnull %17, ptr noundef nonnull %4, i32 noundef 2) #15
  %.fr = freeze i1 %22
  br i1 %.fr, label %.thread115, label %.thread103

.thread103:                                       ; preds = %21, %14, %7
  %.077112 = phi i32 [ 9, %14 ], [ 1, %7 ], [ 9, %21 ]
  %.079111 = phi i32 [ 1, %14 ], [ 0, %7 ], [ 2, %21 ]
  %.080110 = phi i32 [ 20, %14 ], [ 0, %7 ], [ 20, %21 ]
  %.081109 = phi ptr [ %9, %14 ], [ null, %7 ], [ %17, %21 ]
  call void @zend_wrong_parameter_error(i32 noundef %.077112, i32 noundef %.079111, ptr noundef null, i32 noundef %.080110, ptr noundef %.081109) #15
  br label %27

.thread115:                                       ; preds = %21, %16
  %.in = phi ptr [ %17, %16 ], [ %4, %21 ]
  %23 = load double, ptr %.in, align 8
  %24 = load double, ptr %3, align 8
  %25 = call double @fmod(double noundef %24, double noundef %23) #15
  store double %25, ptr %1, align 8
  %26 = getelementptr inbounds i8, ptr %1, i64 8
  store i32 5, ptr %26, align 8
  br label %27

27:                                               ; preds = %.thread115, %.thread103
  ret void
}